; Function Attrs: mustprogress nofree nounwind uwtable
define internal noundef i32 @_ZL15xdrstdio_setposP3XDRj(ptr nocapture noundef readonly %0, i32 noundef %1) #6 {
  %3 = getelementptr inbounds i8, ptr %0, i64 24
  %4 = load ptr, ptr %3, align 8
  %5 = sext i32 %1 to i64
  %6 = tail call i32 @fseek(ptr noundef %4, i64 noundef %5, i32 noundef 0)
  %7 = icmp sgt i32 %6, -1
  %8 = zext i1 %7 to i32
  ret i32 %8
}